target datalayout = "e-m:e-p270:32:32-p271:32:32-p272:64:64-i64:64-i128:128-f80:128-n8:16:32:64-S128"
target triple = "x86_64-pc-linux-gnu"

%struct.VkComponentMapping = type { i32, i32, i32, i32 }
%struct.SDL_AtomicInt = type { i32 }
%struct.VulkanSampler = type { ptr, %struct.SDL_AtomicInt }
%struct.VulkanTextureContainer = type { %struct.TextureCommonHeader, ptr, i32, i32, ptr, ptr, i8 }
%struct.TextureCommonHeader = type { %struct.SDL_GPUTextureCreateInfo }
%struct.SDL_GPUTextureCreateInfo = type { i32, i32, i32, i32, i32, i32, i32, i32, i32 }
%struct.VulkanTexture = type { ptr, i32, ptr, ptr, ptr, %struct.VkComponentMapping, i32, i32, i32, i32, ptr, i8, %struct.SDL_AtomicInt }
%struct.VulkanCommandBuffer = type { %struct.CommandBufferCommonHeader, ptr, ptr, ptr, ptr, i32, i32, ptr, i32, i32, ptr, i32, i32, ptr, ptr, [4 x ptr], i32, [4 x ptr], i32, ptr, %struct.VkViewport, %struct.VkRect2D, [4 x float], i8, ptr, i8, i8, i8, i8, i8, i8, i8, i8, i8, i8, ptr, ptr, ptr, ptr, ptr, ptr, ptr, [16 x ptr], [16 x i64], i32, i8, [16 x ptr], [16 x ptr], [8 x ptr], [8 x ptr], [16 x ptr], [16 x ptr], [8 x ptr], [8 x ptr], [8 x ptr], i32, [8 x ptr], [16 x ptr], [16 x ptr], [8 x ptr], [8 x ptr], [4 x ptr], [4 x ptr], [4 x ptr], ptr, i32, i32, ptr, i32, i32, ptr, i32, i32, ptr, i32, i32, ptr, i32, i32, ptr, i32, i32, ptr, i32, i32, ptr, i8, i8 }
%struct.CommandBufferCommonHeader = type { ptr, %struct.RenderPass, i8, %struct.Pass, i8, %struct.Pass, i8, i8, i8 }
%struct.RenderPass = type { ptr, i8, [4 x ptr], i32, ptr }
%struct.Pass = type { ptr, i8 }
%struct.VkViewport = type { float, float, float, float, float, float }
%struct.VkRect2D = type { %struct.VkOffset2D, %struct.VkExtent2D }
%struct.VkOffset2D = type { i32, i32 }
%struct.VkExtent2D = type { i32, i32 }
%struct.SDL_GPUTextureSamplerBinding = type { ptr, ptr }

; Function Attrs: nounwind uwtable
define internal void @VULKAN_INTERNAL_TrackTexture(ptr noundef %0, ptr noundef %1) #0 {
  %3 = alloca ptr, align 8
  %4 = alloca ptr, align 8
  %5 = alloca i32, align 4
  %6 = alloca i32, align 4
  store ptr %0, ptr %3, align 8
  store ptr %1, ptr %4, align 8
  call void @llvm.lifetime.start.p0(i64 4, ptr %5) #9
  %7 = load ptr, ptr %3, align 8
  %8 = getelementptr inbounds nuw %struct.VulkanCommandBuffer, ptr %7, i32 0, i32 68
  %9 = load i32, ptr %8, align 8
  %10 = sub nsw i32 %9, 1
  store i32 %10, ptr %5, align 4
  br label %11

11:                                               ; preds = %27, %2
  %12 = load i32, ptr %5, align 4
  %13 = icmp sge i32 %12, 0
  br i1 %13, label %15, label %14

14:                                               ; preds = %11
  store i32 2, ptr %6, align 4
  br label %30

15:                                               ; preds = %11
  %16 = load ptr, ptr %3, align 8
  %17 = getelementptr inbounds nuw %struct.VulkanCommandBuffer, ptr %16, i32 0, i32 67
  %18 = load ptr, ptr %17, align 8
  %19 = load i32, ptr %5, align 4
  %20 = sext i32 %19 to i64
  %21 = getelementptr inbounds ptr, ptr %18, i64 %20
  %22 = load ptr, ptr %21, align 8
  %23 = load ptr, ptr %4, align 8
  %24 = icmp eq ptr %22, %23
  br i1 %24, label %25, label %26

25:                                               ; preds = %15
  store i32 1, ptr %6, align 4
  br label %30

26:                                               ; preds = %15
  br label %27

27:                                               ; preds = %26
  %28 = load i32, ptr %5, align 4
  %29 = sub nsw i32 %28, 1
  store i32 %29, ptr %5, align 4
  br label %11, !llvm.loop !101

30:                                               ; preds = %25, %14
  call void @llvm.lifetime.end.p0(i64 4, ptr %5) #9
  %31 = load i32, ptr %6, align 4
  switch i32 %31, label %74 [
    i32 2, label %32
    i32 1, label %73
  ]

32:                                               ; preds = %30
  %33 = load ptr, ptr %3, align 8
  %34 = getelementptr inbounds nuw %struct.VulkanCommandBuffer, ptr %33, i32 0, i32 68
  %35 = load i32, ptr %34, align 8
  %36 = load ptr, ptr %3, align 8
  %37 = getelementptr inbounds nuw %struct.VulkanCommandBuffer, ptr %36, i32 0, i32 69
  %38 = load i32, ptr %37, align 4
  %39 = icmp eq i32 %35, %38
  br i1 %39, label %40, label %56

40:                                               ; preds = %32
  %41 = load ptr, ptr %3, align 8
  %42 = getelementptr inbounds nuw %struct.VulkanCommandBuffer, ptr %41, i32 0, i32 69
  %43 = load i32, ptr %42, align 4
  %44 = add nsw i32 %43, 1
  store i32 %44, ptr %42, align 4
  %45 = load ptr, ptr %3, align 8
  %46 = getelementptr inbounds nuw %struct.VulkanCommandBuffer, ptr %45, i32 0, i32 67
  %47 = load ptr, ptr %46, align 8
  %48 = load ptr, ptr %3, align 8
  %49 = getelementptr inbounds nuw %struct.VulkanCommandBuffer, ptr %48, i32 0, i32 69
  %50 = load i32, ptr %49, align 4
  %51 = sext i32 %50 to i64
  %52 = mul i64 %51, 8
  %53 = call ptr @SDL_realloc_REAL(ptr noundef %47, i64 noundef %52) #11
  %54 = load ptr, ptr %3, align 8
  %55 = getelementptr inbounds nuw %struct.VulkanCommandBuffer, ptr %54, i32 0, i32 67
  store ptr %53, ptr %55, align 8
  br label %56

56:                                               ; preds = %40, %32
  %57 = load ptr, ptr %4, align 8
  %58 = load ptr, ptr %3, align 8
  %59 = getelementptr inbounds nuw %struct.VulkanCommandBuffer, ptr %58, i32 0, i32 67
  %60 = load ptr, ptr %59, align 8
  %61 = load ptr, ptr %3, align 8
  %62 = getelementptr inbounds nuw %struct.VulkanCommandBuffer, ptr %61, i32 0, i32 68
  %63 = load i32, ptr %62, align 8
  %64 = sext i32 %63 to i64
  %65 = getelementptr inbounds ptr, ptr %60, i64 %64
  store ptr %57, ptr %65, align 8
  %66 = load ptr, ptr %3, align 8
  %67 = getelementptr inbounds nuw %struct.VulkanCommandBuffer, ptr %66, i32 0, i32 68
  %68 = load i32, ptr %67, align 8
  %69 = add nsw i32 %68, 1
  store i32 %69, ptr %67, align 8
  %70 = load ptr, ptr %4, align 8
  %71 = getelementptr inbounds nuw %struct.VulkanTexture, ptr %70, i32 0, i32 12
  %72 = call i32 @SDL_AddAtomicInt_REAL(ptr noundef %71, i32 noundef 1)
  br label %73

73:                                               ; preds = %56, %30
  ret void

74:                                               ; preds = %30
  unreachable
}

; Function Attrs: nounwind uwtable
define internal void @VULKAN_INTERNAL_TrackSampler(ptr noundef %0, ptr noundef %1) #0 {
  %3 = alloca ptr, align 8
  %4 = alloca ptr, align 8
  %5 = alloca i32, align 4
  %6 = alloca i32, align 4
  store ptr %0, ptr %3, align 8
  store ptr %1, ptr %4, align 8
  call void @llvm.lifetime.start.p0(i64 4, ptr %5) #9
  %7 = load ptr, ptr %3, align 8
  %8 = getelementptr inbounds nuw %struct.VulkanCommandBuffer, ptr %7, i32 0, i32 71
  %9 = load i32, ptr %8, align 8
  %10 = sub nsw i32 %9, 1
  store i32 %10, ptr %5, align 4
  br label %11

11:                                               ; preds = %27, %2
  %12 = load i32, ptr %5, align 4
  %13 = icmp sge i32 %12, 0
  br i1 %13, label %15, label %14

14:                                               ; preds = %11
  store i32 2, ptr %6, align 4
  br label %30

15:                                               ; preds = %11
  %16 = load ptr, ptr %3, align 8
  %17 = getelementptr inbounds nuw %struct.VulkanCommandBuffer, ptr %16, i32 0, i32 70
  %18 = load ptr, ptr %17, align 8
  %19 = load i32, ptr %5, align 4
  %20 = sext i32 %19 to i64
  %21 = getelementptr inbounds ptr, ptr %18, i64 %20
  %22 = load ptr, ptr %21, align 8
  %23 = load ptr, ptr %4, align 8
  %24 = icmp eq ptr %22, %23
  br i1 %24, label %25, label %26

25:                                               ; preds = %15
  store i32 1, ptr %6, align 4
  br label %30

26:                                               ; preds = %15
  br label %27

27:                                               ; preds = %26
  %28 = load i32, ptr %5, align 4
  %29 = sub nsw i32 %28, 1
  store i32 %29, ptr %5, align 4
  br label %11, !llvm.loop !126

30:                                               ; preds = %25, %14
  call void @llvm.lifetime.end.p0(i64 4, ptr %5) #9
  %31 = load i32, ptr %6, align 4
  switch i32 %31, label %74 [
    i32 2, label %32
    i32 1, label %73
  ]

32:                                               ; preds = %30
  %33 = load ptr, ptr %3, align 8
  %34 = getelementptr inbounds nuw %struct.VulkanCommandBuffer, ptr %33, i32 0, i32 71
  %35 = load i32, ptr %34, align 8
  %36 = load ptr, ptr %3, align 8
  %37 = getelementptr inbounds nuw %struct.VulkanCommandBuffer, ptr %36, i32 0, i32 72
  %38 = load i32, ptr %37, align 4
  %39 = icmp eq i32 %35, %38
  br i1 %39, label %40, label %56

40:                                               ; preds = %32
  %41 = load ptr, ptr %3, align 8
  %42 = getelementptr inbounds nuw %struct.VulkanCommandBuffer, ptr %41, i32 0, i32 72
  %43 = load i32, ptr %42, align 4
  %44 = add nsw i32 %43, 1
  store i32 %44, ptr %42, align 4
  %45 = load ptr, ptr %3, align 8
  %46 = getelementptr inbounds nuw %struct.VulkanCommandBuffer, ptr %45, i32 0, i32 70
  %47 = load ptr, ptr %46, align 8
  %48 = load ptr, ptr %3, align 8
  %49 = getelementptr inbounds nuw %struct.VulkanCommandBuffer, ptr %48, i32 0, i32 72
  %50 = load i32, ptr %49, align 4
  %51 = sext i32 %50 to i64
  %52 = mul i64 %51, 8
  %53 = call ptr @SDL_realloc_REAL(ptr noundef %47, i64 noundef %52) #11
  %54 = load ptr, ptr %3, align 8
  %55 = getelementptr inbounds nuw %struct.VulkanCommandBuffer, ptr %54, i32 0, i32 70
  store ptr %53, ptr %55, align 8
  br label %56

56:                                               ; preds = %40, %32
  %57 = load ptr, ptr %4, align 8
  %58 = load ptr, ptr %3, align 8
  %59 = getelementptr inbounds nuw %struct.VulkanCommandBuffer, ptr %58, i32 0, i32 70
  %60 = load ptr, ptr %59, align 8
  %61 = load ptr, ptr %3, align 8
  %62 = getelementptr inbounds nuw %struct.VulkanCommandBuffer, ptr %61, i32 0, i32 71
  %63 = load i32, ptr %62, align 8
  %64 = sext i32 %63 to i64
  %65 = getelementptr inbounds ptr, ptr %60, i64 %64
  store ptr %57, ptr %65, align 8
  %66 = load ptr, ptr %3, align 8
  %67 = getelementptr inbounds nuw %struct.VulkanCommandBuffer, ptr %66, i32 0, i32 71
  %68 = load i32, ptr %67, align 8
  %69 = add nsw i32 %68, 1
  store i32 %69, ptr %67, align 8
  %70 = load ptr, ptr %4, align 8
  %71 = getelementptr inbounds nuw %struct.VulkanSampler, ptr %70, i32 0, i32 1
  %72 = call i32 @SDL_AddAtomicInt_REAL(ptr noundef %71, i32 noundef 1)
  br label %73

73:                                               ; preds = %56, %30
  ret void

74:                                               ; preds = %30
  unreachable
}

; Function Attrs: nounwind uwtable
define internal void @VULKAN_BindVertexSamplers(ptr noundef %0, i32 noundef %1, ptr noundef %2, i32 noundef %3) #0 {
  %5 = alloca ptr, align 8
  %6 = alloca i32, align 4
  %7 = alloca ptr, align 8
  %8 = alloca i32, align 4
  %9 = alloca ptr, align 8
  %10 = alloca i32, align 4
  %11 = alloca ptr, align 8
  %12 = alloca ptr, align 8
  store ptr %0, ptr %5, align 8
  store i32 %1, ptr %6, align 4
  store ptr %2, ptr %7, align 8
  store i32 %3, ptr %8, align 4
  call void @llvm.lifetime.start.p0(i64 8, ptr %9) #9
  %13 = load ptr, ptr %5, align 8
  store ptr %13, ptr %9, align 8
  call void @llvm.lifetime.start.p0(i64 4, ptr %10) #9
  store i32 0, ptr %10, align 4
  br label %14

14:                                               ; preds = %96, %4
  %15 = load i32, ptr %10, align 4
  %16 = load i32, ptr %8, align 4
  %17 = icmp ult i32 %15, %16
  br i1 %17, label %19, label %18

18:                                               ; preds = %14
  call void @llvm.lifetime.end.p0(i64 4, ptr %10) #9
  br label %99

19:                                               ; preds = %14
  call void @llvm.lifetime.start.p0(i64 8, ptr %11) #9
  %20 = load ptr, ptr %7, align 8
  %21 = load i32, ptr %10, align 4
  %22 = zext i32 %21 to i64
  %23 = getelementptr inbounds nuw %struct.SDL_GPUTextureSamplerBinding, ptr %20, i64 %22
  %24 = getelementptr inbounds nuw %struct.SDL_GPUTextureSamplerBinding, ptr %23, i32 0, i32 0
  %25 = load ptr, ptr %24, align 8
  store ptr %25, ptr %11, align 8
  call void @llvm.lifetime.start.p0(i64 8, ptr %12) #9
  %26 = load ptr, ptr %7, align 8
  %27 = load i32, ptr %10, align 4
  %28 = zext i32 %27 to i64
  %29 = getelementptr inbounds nuw %struct.SDL_GPUTextureSamplerBinding, ptr %26, i64 %28
  %30 = getelementptr inbounds nuw %struct.SDL_GPUTextureSamplerBinding, ptr %29, i32 0, i32 1
  %31 = load ptr, ptr %30, align 8
  store ptr %31, ptr %12, align 8
  %32 = load ptr, ptr %9, align 8
  %33 = getelementptr inbounds nuw %struct.VulkanCommandBuffer, ptr %32, i32 0, i32 47
  %34 = load i32, ptr %6, align 4
  %35 = load i32, ptr %10, align 4
  %36 = add i32 %34, %35
  %37 = zext i32 %36 to i64
  %38 = getelementptr inbounds nuw [16 x ptr], ptr %33, i64 0, i64 %37
  %39 = load ptr, ptr %38, align 8
  %40 = load ptr, ptr %12, align 8
  %41 = icmp ne ptr %39, %40
  br i1 %41, label %42, label %65

42:                                               ; preds = %19
  %43 = load ptr, ptr %9, align 8
  %44 = load ptr, ptr %7, align 8
  %45 = load i32, ptr %10, align 4
  %46 = zext i32 %45 to i64
  %47 = getelementptr inbounds nuw %struct.SDL_GPUTextureSamplerBinding, ptr %44, i64 %46
  %48 = getelementptr inbounds nuw %struct.SDL_GPUTextureSamplerBinding, ptr %47, i32 0, i32 1
  %49 = load ptr, ptr %48, align 8
  call void @VULKAN_INTERNAL_TrackSampler(ptr noundef %43, ptr noundef %49)
  %50 = load ptr, ptr %7, align 8
  %51 = load i32, ptr %10, align 4
  %52 = zext i32 %51 to i64
  %53 = getelementptr inbounds nuw %struct.SDL_GPUTextureSamplerBinding, ptr %50, i64 %52
  %54 = getelementptr inbounds nuw %struct.SDL_GPUTextureSamplerBinding, ptr %53, i32 0, i32 1
  %55 = load ptr, ptr %54, align 8
  %56 = load ptr, ptr %9, align 8
  %57 = getelementptr inbounds nuw %struct.VulkanCommandBuffer, ptr %56, i32 0, i32 47
  %58 = load i32, ptr %6, align 4
  %59 = load i32, ptr %10, align 4
  %60 = add i32 %58, %59
  %61 = zext i32 %60 to i64
  %62 = getelementptr inbounds nuw [16 x ptr], ptr %57, i64 0, i64 %61
  store ptr %55, ptr %62, align 8
  %63 = load ptr, ptr %9, align 8
  %64 = getelementptr inbounds nuw %struct.VulkanCommandBuffer, ptr %63, i32 0, i32 25
  store i8 1, ptr %64, align 8
  br label %65

65:                                               ; preds = %42, %19
  %66 = load ptr, ptr %9, align 8
  %67 = getelementptr inbounds nuw %struct.VulkanCommandBuffer, ptr %66, i32 0, i32 46
  %68 = load i32, ptr %6, align 4
  %69 = load i32, ptr %10, align 4
  %70 = add i32 %68, %69
  %71 = zext i32 %70 to i64
  %72 = getelementptr inbounds nuw [16 x ptr], ptr %67, i64 0, i64 %71
  %73 = load ptr, ptr %72, align 8
  %74 = load ptr, ptr %11, align 8
  %75 = getelementptr inbounds nuw %struct.VulkanTextureContainer, ptr %74, i32 0, i32 1
  %76 = load ptr, ptr %75, align 8
  %77 = icmp ne ptr %73, %76
  br i1 %77, label %78, label %95

78:                                               ; preds = %65
  %79 = load ptr, ptr %9, align 8
  %80 = load ptr, ptr %11, align 8
  %81 = getelementptr inbounds nuw %struct.VulkanTextureContainer, ptr %80, i32 0, i32 1
  %82 = load ptr, ptr %81, align 8
  call void @VULKAN_INTERNAL_TrackTexture(ptr noundef %79, ptr noundef %82)
  %83 = load ptr, ptr %11, align 8
  %84 = getelementptr inbounds nuw %struct.VulkanTextureContainer, ptr %83, i32 0, i32 1
  %85 = load ptr, ptr %84, align 8
  %86 = load ptr, ptr %9, align 8
  %87 = getelementptr inbounds nuw %struct.VulkanCommandBuffer, ptr %86, i32 0, i32 46
  %88 = load i32, ptr %6, align 4
  %89 = load i32, ptr %10, align 4
  %90 = add i32 %88, %89
  %91 = zext i32 %90 to i64
  %92 = getelementptr inbounds nuw [16 x ptr], ptr %87, i64 0, i64 %91
  store ptr %85, ptr %92, align 8
  %93 = load ptr, ptr %9, align 8
  %94 = getelementptr inbounds nuw %struct.VulkanCommandBuffer, ptr %93, i32 0, i32 25
  store i8 1, ptr %94, align 8
  br label %95

95:                                               ; preds = %78, %65
  call void @llvm.lifetime.end.p0(i64 8, ptr %12) #9
  call void @llvm.lifetime.end.p0(i64 8, ptr %11) #9
  br label %96

96:                                               ; preds = %95
  %97 = load i32, ptr %10, align 4
  %98 = add i32 %97, 1
  store i32 %98, ptr %10, align 4
  br label %14, !llvm.loop !34

99:                                               ; preds = %18
  call void @llvm.lifetime.end.p0(i64 8, ptr %9) #9
  ret void
}