; Function Attrs: nounwind uwtable
define internal void @VULKAN_BindVertexSamplers(ptr noundef captures(none) %0, i32 noundef %1, ptr noundef readonly captures(none) %2, i32 noundef %3) #0 {
  %.not38 = icmp eq i32 %3, 0
  br i1 %.not38, label %._crit_edge, label %.lr.ph

.lr.ph:                                           ; preds = %4
  %5 = getelementptr inbounds nuw i8, ptr %0, i64 840
  %6 = getelementptr inbounds nuw i8, ptr %0, i64 2136
  %7 = getelementptr inbounds nuw i8, ptr %0, i64 2128
  %8 = getelementptr inbounds nuw i8, ptr %0, i64 2140
  %9 = getelementptr inbounds nuw i8, ptr %0, i64 376
  %10 = getelementptr inbounds nuw i8, ptr %0, i64 712
  %11 = getelementptr inbounds nuw i8, ptr %0, i64 2120
  %12 = getelementptr inbounds nuw i8, ptr %0, i64 2112
  %13 = getelementptr inbounds nuw i8, ptr %0, i64 2124
  %wide.trip.count = zext i32 %3 to i64
  br label %14

._crit_edge:                                      ; preds = %89, %4
  ret void

14:                                               ; preds = %.lr.ph, %89
  %indvars.iv = phi i64 [ 0, %.lr.ph ], [ %indvars.iv.next, %89 ]
  %15 = getelementptr inbounds nuw %struct.SDL_GPUTextureSamplerBinding, ptr %2, i64 %indvars.iv
  %16 = load ptr, ptr %15, align 8
  %17 = getelementptr inbounds nuw i8, ptr %15, i64 8
  %18 = load ptr, ptr %17, align 8
  %19 = trunc nuw i64 %indvars.iv to i32
  %20 = add i32 %1, %19
  %21 = zext i32 %20 to i64
  %22 = getelementptr inbounds nuw [16 x ptr], ptr %5, i64 0, i64 %21
  %23 = load ptr, ptr %22, align 8
  %.not = icmp eq ptr %23, %18
  br i1 %.not, label %54, label %24

24:                                               ; preds = %14
  %25 = load i32, ptr %6, align 8
  %26 = zext i32 %25 to i64
  br label %27

27:                                               ; preds = %30, %24
  %indvars.iv.i = phi i64 [ %31, %30 ], [ %26, %24 ]
  %28 = trunc nuw i64 %indvars.iv.i to i32
  %29 = icmp sgt i32 %28, 0
  br i1 %29, label %30, label %36

30:                                               ; preds = %27
  %31 = add nsw i64 %indvars.iv.i, -1
  %32 = load ptr, ptr %7, align 8
  %33 = getelementptr inbounds nuw ptr, ptr %32, i64 %31
  %34 = load ptr, ptr %33, align 8
  %35 = icmp eq ptr %34, %18
  br i1 %35, label %VULKAN_INTERNAL_TrackSampler.exit, label %27, !llvm.loop !47

36:                                               ; preds = %27
  %37 = load i32, ptr %8, align 4
  %38 = icmp eq i32 %25, %37
  %.pre.i = load ptr, ptr %7, align 8
  br i1 %38, label %39, label %44

39:                                               ; preds = %36
  %40 = add nsw i32 %25, 1
  store i32 %40, ptr %8, align 4
  %41 = sext i32 %40 to i64
  %42 = shl nsw i64 %41, 3
  %43 = tail call ptr @SDL_realloc_REAL(ptr noundef %.pre.i, i64 noundef %42) #16
  store ptr %43, ptr %7, align 8
  %.pre24.i = load i32, ptr %6, align 8
  br label %44

44:                                               ; preds = %39, %36
  %45 = phi i32 [ %.pre24.i, %39 ], [ %25, %36 ]
  %46 = phi ptr [ %43, %39 ], [ %.pre.i, %36 ]
  %47 = sext i32 %45 to i64
  %48 = getelementptr inbounds ptr, ptr %46, i64 %47
  store ptr %18, ptr %48, align 8
  %49 = load i32, ptr %6, align 8
  %50 = add nsw i32 %49, 1
  store i32 %50, ptr %6, align 8
  %51 = getelementptr inbounds nuw i8, ptr %18, i64 8
  %52 = tail call i32 @SDL_AddAtomicInt_REAL(ptr noundef nonnull %51, i32 noundef 1) #13
  %.pre = load ptr, ptr %17, align 8
  br label %VULKAN_INTERNAL_TrackSampler.exit

VULKAN_INTERNAL_TrackSampler.exit:                ; preds = %30, %44
  %53 = phi ptr [ %.pre, %44 ], [ %18, %30 ]
  store ptr %53, ptr %22, align 8
  store i8 1, ptr %9, align 8
  br label %54

54:                                               ; preds = %VULKAN_INTERNAL_TrackSampler.exit, %14
  %55 = getelementptr inbounds nuw [16 x ptr], ptr %10, i64 0, i64 %21
  %56 = load ptr, ptr %55, align 8
  %57 = getelementptr inbounds nuw i8, ptr %16, i64 40
  %58 = load ptr, ptr %57, align 8
  %.not33 = icmp eq ptr %56, %58
  br i1 %.not33, label %89, label %59

59:                                               ; preds = %54
  %60 = load i32, ptr %11, align 8
  %61 = zext i32 %60 to i64
  br label %62

62:                                               ; preds = %65, %59
  %indvars.iv.i34 = phi i64 [ %66, %65 ], [ %61, %59 ]
  %63 = trunc nuw i64 %indvars.iv.i34 to i32
  %64 = icmp sgt i32 %63, 0
  br i1 %64, label %65, label %71

65:                                               ; preds = %62
  %66 = add nsw i64 %indvars.iv.i34, -1
  %67 = load ptr, ptr %12, align 8
  %68 = getelementptr inbounds nuw ptr, ptr %67, i64 %66
  %69 = load ptr, ptr %68, align 8
  %70 = icmp eq ptr %69, %58
  br i1 %70, label %VULKAN_INTERNAL_TrackTexture.exit, label %62, !llvm.loop !36

71:                                               ; preds = %62
  %72 = load i32, ptr %13, align 4
  %73 = icmp eq i32 %60, %72
  %.pre.i35 = load ptr, ptr %12, align 8
  br i1 %73, label %74, label %79

74:                                               ; preds = %71
  %75 = add nsw i32 %60, 1
  store i32 %75, ptr %13, align 4
  %76 = sext i32 %75 to i64
  %77 = shl nsw i64 %76, 3
  %78 = tail call ptr @SDL_realloc_REAL(ptr noundef %.pre.i35, i64 noundef %77) #16
  store ptr %78, ptr %12, align 8
  %.pre24.i36 = load i32, ptr %11, align 8
  br label %79

79:                                               ; preds = %74, %71
  %80 = phi i32 [ %.pre24.i36, %74 ], [ %60, %71 ]
  %81 = phi ptr [ %78, %74 ], [ %.pre.i35, %71 ]
  %82 = sext i32 %80 to i64
  %83 = getelementptr inbounds ptr, ptr %81, i64 %82
  store ptr %58, ptr %83, align 8
  %84 = load i32, ptr %11, align 8
  %85 = add nsw i32 %84, 1
  store i32 %85, ptr %11, align 8
  %86 = getelementptr inbounds nuw i8, ptr %58, i64 84
  %87 = tail call i32 @SDL_AddAtomicInt_REAL(ptr noundef nonnull %86, i32 noundef 1) #13
  %.pre40 = load ptr, ptr %57, align 8
  br label %VULKAN_INTERNAL_TrackTexture.exit

VULKAN_INTERNAL_TrackTexture.exit:                ; preds = %65, %79
  %88 = phi ptr [ %.pre40, %79 ], [ %58, %65 ]
  store ptr %88, ptr %55, align 8
  store i8 1, ptr %9, align 8
  br label %89

89:                                               ; preds = %VULKAN_INTERNAL_TrackTexture.exit, %54
  %indvars.iv.next = add nuw nsw i64 %indvars.iv, 1
  %exitcond.not = icmp eq i64 %indvars.iv.next, %wide.trip.count
  br i1 %exitcond.not, label %._crit_edge, label %14, !llvm.loop !48
}